(dp1
S'1765'
p2
c__builtin__
set
p3
((lp4
S'24'
p5
aS'39'
p6
aS'1023'
p7
aS'141'
p8
aS'748'
p9
aS'1393'
p10
aS'853'
p11
aS'353'
p12
aS'40'
p13
aS'43'
p14
aS'111'
p15
aS'347'
p16
aS'829'
p17
aS'3097'
p18
aS'1515'
p19
aS'2946'
p20
aS'1528'
p21
aS'2243'
p22
atRp23
sS'3928'
p24
g3
((ltRp25
sS'4022'
p26
g3
((lp27
S'6022'
p28
aS'6047'
p29
aS'21943'
p30
atRp31
sS'26471'
p32
g3
((lp33
S'17214'
p34
aS'26266'
p35
aS'26268'
p36
aS'25820'
p37
atRp38
sS'3258'
p39
g3
((lp40
S'612'
p41
aS'695'
p42
aS'1964'
p43
aS'2549'
p44
aS'1971'
p45
aS'660'
p46
aS'4996'
p47
aS'1825'
p48
aS'179'
p49
aS'3257'
p50
atRp51
sS'5987'
p52
g3
((lp53
S'883'
p54
aS'2594'
p55
aS'13'
p56
aS'2083'
p57
aS'713'
p58
aS'778'
p59
aS'660'
p60
aS'5887'
p61
aS'6317'
p62
aS'6718'
p63
atRp64
sS'3257'
p65
g3
((lp66
S'3258'
p67
ag43
ag44
ag41
aS'695'
p68
atRp69
sS'347'
p70
g3
((lp71
S'5115'
p72
aS'111'
p73
aS'66'
p74
aS'3725'
p75
aS'80'
p76
aS'24'
p77
aS'11079'
p78
aS'2547'
p79
ag11
aS'4676'
p80
aS'2549'
p81
ag14
aS'40'
p82
aS'22851'
p83
aS'1375'
p84
aS'6047'
p85
aS'650'
p86
aS'6048'
p87
aS'1393'
p88
aS'2243'
p89
aS'141'
p90
aS'39'
p91
aS'4622'
p92
aS'1498'
p93
aS'1555'
p94
aS'903'
p95
aS'1702'
p96
aS'2125'
p97
aS'781'
p98
aS'1023'
p99
aS'1970'
p100
ag12
aS'376'
p101
aS'1765'
p102
atRp103
sS'342'
p104
g3
((lp105
S'581'
p106
aS'1393'
p107
aS'3694'
p108
aS'43'
p109
aS'412'
p110
aS'24487'
p111
aS'932'
p112
aS'1401'
p113
aS'292'
p114
aS'13479'
p115
atRp116
sS'718'
p117
g3
((lp118
S'150'
p119
aS'780'
p120
aS'717'
p121
aS'2985'
p122
aS'387'
p123
aS'220'
p124
atRp125
sS'717'
p126
g3
((lp127
g119
aS'387'
p128
ag120
aS'718'
p129
atRp130
sS'713'
p131
g3
((lp132
g54
aS'13'
p133
aS'778'
p134
aS'5987'
p135
ag60
aS'5887'
p136
aS'6317'
p137
aS'6718'
p138
aS'5212'
p139
aS'5965'
p140
atRp141
sS'7043'
p142
g3
((lp143
S'211'
p144
atRp145
sS'1498'
p146
g3
((lp147
g77
aS'1702'
p148
ag91
aS'781'
p149
aS'1023'
p150
aS'612'
p151
aS'191'
p152
aS'908'
p153
aS'3860'
p154
aS'872'
p155
aS'778'
p156
ag82
aS'190'
p157
aS'347'
p158
aS'111'
p159
aS'395'
p160
ag87
aS'97'
p161
ag101
atRp162
sS'6840'
p163
g3
((lp164
S'6861'
p165
atRp166
sS'7048'
p167
g3
((lp168
S'206'
p169
aS'1428'
p170
aS'311'
p171
aS'2423'
p172
aS'2424'
p173
aS'4672'
p174
aS'829'
p175
aS'4565'
p176
aS'4541'
p177
aS'4845'
p178
aS'256'
p179
aS'5965'
p180
atRp181
sS'1702'
p182
g3
((lp183
g159
aS'65'
p184
aS'81'
p185
aS'256'
p186
aS'24'
p187
aS'1850'
p188
aS'3691'
p189
aS'44'
p190
aS'43'
p191
aS'40'
p192
ag158
aS'162'
p193
aS'4'
ag87
aS'13'
p194
aS'380'
p195
aS'1498'
p196
aS'2952'
p197
aS'3355'
p198
aS'39'
p199
aS'50'
p200
aS'353'
p201
aS'2171'
p202
aS'376'
p203
atRp204
sS'1393'
p205
g3
((lp206
g90
ag89
ag11
ag14
aS'2427'
p207
aS'4672'
p208
ag15
aS'347'
p209
ag12
aS'342'
p210
ag75
aS'24487'
p211
aS'3067'
p212
ag102
aS'220'
p213
atRp214
sS'298'
p215
g3
((lp216
S'773'
p217
aS'581'
p218
aS'300'
p219
aS'3010'
p220
aS'31'
p221
aS'3121'
p222
aS'2427'
p223
aS'1595'
p224
aS'311'
p225
aS'297'
p226
aS'1290'
p227
aS'1565'
p228
aS'162'
p229
atRp230
sS'297'
p231
g3
((lp232
S'1595'
p233
aS'300'
p234
aS'298'
p235
aS'581'
p236
atRp237
sS'1665'
p238
g3
((lp239
S'2472'
p240
aS'770'
p241
aS'87'
p242
aS'206'
p243
atRp244
sS'292'
p245
g3
((lp246
S'752'
p247
aS'1426'
p248
aS'612'
p249
aS'2058'
p250
aS'452'
p251
aS'228'
p252
aS'2234'
p253
aS'778'
p254
aS'2268'
p255
aS'342'
p256
aS'639'
p257
aS'256'
p258
aS'13479'
p259
aS'3051'
p260
atRp261
sS'5910'
p262
g3
((lp263
S'13'
p264
aS'1964'
p265
aS'2549'
p266
aS'778'
p267
aS'1971'
p268
aS'1748'
p269
aS'111'
p270
atRp271
sS'191'
p272
g3
((lp273
S'13'
p274
aS'43'
p275
aS'1023'
p276
aS'4000'
p277
aS'639'
p278
aS'908'
p279
ag154
aS'190'
p280
aS'40'
p281
aS'660'
p282
aS'111'
p283
aS'1498'
p284
aS'1885'
p285
aS'2503'
p286
aS'44'
p287
aS'97'
p288
atRp289
sS'190'
p290
g3
((lp291
S'883'
p292
aS'13'
p293
aS'12'
p294
aS'4000'
p295
aS'191'
p296
aS'872'
p297
aS'1964'
p298
aS'111'
p299
aS'1748'
p300
ag160
aS'1498'
p301
aS'103'
p302
aS'80'
p303
atRp304
sS'2547'
p305
g3
((lp306
S'11079'
p307
aS'2125'
p308
aS'2040'
p309
aS'853'
p310
aS'4676'
p311
aS'22851'
p312
aS'4622'
p313
aS'347'
p314
atRp315
sS'3383'
p316
g3
((lp317
S'1160'
p318
atRp319
sS'2549'
p320
g3
((lp321
S'3258'
p322
aS'1160'
p323
ag43
aS'3257'
p324
aS'347'
p325
aS'111'
p326
aS'932'
p327
aS'353'
p328
aS'1885'
p329
aS'81'
p330
aS'2503'
p331
aS'5910'
p332
atRp333
sS'2985'
p334
g3
((lp335
S'1885'
p336
aS'883'
p337
aS'584'
p338
aS'1160'
p339
aS'718'
p340
aS'3792'
p341
aS'2083'
p342
aS'2427'
p343
aS'353'
p344
aS'1374'
p345
aS'66'
p346
aS'464'
p347
aS'5073'
p348
aS'1401'
p349
aS'81'
p350
aS'5121'
p351
atRp352
sS'2268'
p353
g3
((lp354
S'770'
p355
aS'612'
p356
ag250
aS'2234'
p357
ag257
aS'22541'
p358
aS'292'
p359
atRp360
sS'1401'
p361
g3
((lp362
S'24'
p363
aS'752'
p364
aS'342'
p365
aS'853'
p366
aS'353'
p367
aS'2643'
p368
aS'43'
p369
aS'2985'
p370
ag343
aS'1748'
p371
aS'3544'
p372
aS'1399'
p373
aS'103'
p374
aS'660'
p375
aS'169'
p376
atRp377
sS'1338'
p378
g3
((lp379
S'2211'
p380
aS'206'
p381
aS'4622'
p382
aS'3685'
p383
aS'5926'
p384
aS'6047'
p385
aS'926'
p386
aS'2243'
p387
atRp388
sS'103'
p389
g3
((lp390
g372
aS'868'
p391
aS'4161'
p392
aS'1964'
p393
aS'31'
p394
aS'872'
p395
aS'190'
p396
aS'416'
p397
aS'3097'
p398
aS'932'
p399
aS'1401'
p400
aS'162'
p401
atRp402
sS'903'
p403
g3
((lp404
S'578'
p405
aS'780'
p406
aS'3071'
p407
aS'347'
p408
aS'4'
aS'66'
p409
aS'2946'
p410
aS'72'
p411
aS'1459'
p412
aS'65'
p413
atRp414
sS'39'
p415
g3
((lp416
g77
ag158
aS'1702'
p417
aS'1023'
p418
aS'852'
p419
aS'1765'
p420
aS'2209'
p421
aS'778'
p422
ag200
aS'40'
p423
aS'41'
p424
ag202
ag159
aS'4'
ag93
ag87
ag101
ag186
aS'2243'
p425
atRp426
sS'2040'
p427
g3
((lp428
S'4008'
p429
aS'2547'
p430
aS'1222'
p431
aS'1964'
p432
aS'1825'
p433
aS'4445'
p434
aS'932'
p435
aS'1885'
p436
atRp437
sS'1843'
p438
g3
((lp439
S'883'
p440
aS'2594'
p441
aS'13'
p442
aS'781'
p443
aS'1964'
p444
aS'2083'
p445
aS'778'
p446
aS'660'
p447
aS'1533'
p448
aS'6718'
p449
aS'2209'
p450
aS'6440'
p451
atRp452
sS'31'
p453
g3
((lp454
S'3007'
p455
aS'1634'
p456
aS'2520'
p457
aS'49'
p458
ag222
aS'43'
p459
aS'4845'
p460
ag228
aS'581'
p461
ag219
aS'2643'
p462
aS'2427'
p463
aS'1595'
p464
aS'103'
p465
aS'166'
p466
aS'868'
p467
aS'1026'
p468
aS'1023'
p469
aS'3010'
p470
aS'50'
p471
aS'1970'
p472
aS'298'
p473
aS'1459'
p474
atRp475
sS'4678'
p476
g3
((lp477
S'2211'
p478
aS'1222'
p479
aS'4679'
p480
aS'206'
p481
aS'2423'
p482
aS'43'
p483
aS'4672'
p484
atRp485
sS'1533'
p486
g3
((lp487
S'883'
p488
aS'868'
p489
aS'13'
p490
aS'5426'
p491
aS'695'
p492
aS'1843'
p493
aS'2300'
p494
aS'3503'
p495
aS'778'
p496
aS'1971'
p497
aS'1220'
p498
aS'3978'
p499
aS'180'
p500
aS'12'
p501
aS'829'
p502
aS'3111'
p503
aS'179'
p504
aS'2209'
p505
aS'1748'
p506
aS'1885'
p507
aS'1459'
p508
atRp509
sS'3097'
p510
g3
((lp511
S'5111'
p512
aS'41'
p513
aS'1956'
p514
aS'2688'
p515
aS'103'
p516
aS'3830'
p517
aS'1765'
p518
atRp519
sS'2165'
p520
g3
((lp521
S'41'
p522
atRp523
sS'2160'
p524
g3
((lp525
S'4845'
p526
aS'2643'
p527
atRp528
sS'1538'
p529
g3
((lp530
S'883'
p531
aS'4163'
p532
aS'1828'
p533
aS'5426'
p534
aS'1971'
p535
aS'5078'
p536
aS'5212'
p537
aS'179'
p538
aS'1450'
p539
aS'6440'
p540
atRp541
sS'22620'
p542
g3
((lp543
S'22619'
p544
aS'2688'
p545
aS'3691'
p546
atRp547
sS'22541'
p548
g3
((lp549
S'2268'
p550
aS'770'
p551
atRp552
sS'3807'
p553
g3
((lp554
S'2623'
p555
aS'584'
p556
aS'3796'
p557
aS'3694'
p558
aS'306'
p559
aS'1874'
p560
aS'829'
p561
aS'1374'
p562
aS'5965'
p563
atRp564
sS'15327'
p565
g3
((lp566
S'4'
atRp567
sS'852'
p568
g3
((lp569
S'39'
p570
aS'578'
p571
aS'66'
p572
aS'853'
p573
aS'748'
p574
aS'944'
p575
aS'317'
p576
aS'1737'
p577
aS'732'
p578
aS'386'
p579
aS'328'
p580
atRp581
sS'853'
p582
g3
((lp583
S'1160'
p584
aS'4245'
p585
aS'660'
p586
aS'392'
p587
ag15
aS'256'
p588
aS'1774'
p589
aS'2547'
p590
aS'852'
p591
aS'1426'
p592
ag90
aS'43'
p593
ag16
aS'1401'
p594
ag10
ag89
ag364
aS'773'
p595
aS'581'
p596
aS'2423'
p597
aS'2427'
p598
aS'4622'
p599
aS'386'
p600
aS'1290'
p601
aS'2125'
p602
aS'1825'
p603
ag12
aS'5212'
p604
ag102
atRp605
sS'2688'
p606
g3
((lp607
S'22620'
p608
aS'1826'
p609
ag512
aS'3598'
p610
aS'22817'
p611
aS'22750'
p612
aS'22751'
p613
aS'2199'
p614
aS'3691'
p615
aS'4741'
p616
aS'4672'
p617
aS'2171'
p618
aS'1375'
p619
aS'6047'
p620
aS'22619'
p621
aS'3912'
p622
aS'3935'
p623
aS'16107'
p624
aS'16106'
p625
aS'306'
p626
aS'3355'
p627
aS'965'
p628
aS'3789'
p629
aS'3097'
p630
aS'3960'
p631
aS'4970'
p632
atRp633
sS'16107'
p634
g3
((lp635
g609
ag625
aS'2688'
p636
ag631
ag614
ag613
ag612
aS'4970'
p637
atRp638
sS'22439'
p639
g3
((lp640
S'13378'
p641
atRp642
sS'92'
p643
g3
((lp644
S'868'
p645
aS'166'
p646
atRp647
sS'97'
p648
g3
((lp649
S'10'
p650
aS'13'
p651
aS'12'
p652
aS'1555'
p653
aS'695'
p654
aS'4000'
p655
aS'191'
p656
aS'3860'
p657
ag155
aS'1498'
p658
aS'6048'
p659
atRp660
sS'1623'
p661
g3
((lp662
S'300'
p663
aS'2946'
p664
aS'311'
p665
aS'4120'
p666
aS'3010'
p667
atRp668
sS'4171'
p669
g3
((lp670
S'1459'
p671
aS'49'
p672
atRp673
sS'3960'
p674
g3
((lp675
S'16107'
p676
ag614
ag609
aS'2688'
p677
ag625
atRp678
sS'3968'
p679
g3
((lp680
S'24'
p681
aS'2503'
p682
aS'40'
p683
atRp684
sS'9598'
p685
g3
((lp686
S'5763'
p687
aS'9462'
p688
atRp689
sS'743'
p690
g3
((lp691
S'5072'
p692
aS'300'
p693
aS'1273'
p694
aS'1160'
p695
atRp696
sS'748'
p697
g3
((lp698
S'773'
p699
aS'852'
p700
aS'3067'
p701
aS'4565'
p702
aS'328'
p703
aS'1765'
p704
aS'1528'
p705
aS'2243'
p706
atRp707
sS'3067'
p708
g3
((lp709
S'773'
p710
aS'748'
p711
aS'4120'
p712
aS'41'
p713
aS'2427'
p714
aS'1393'
p715
aS'2243'
p716
atRp717
sS'2946'
p718
g3
((lp719
S'1623'
p720
aS'903'
p721
aS'2472'
p722
aS'49'
p723
aS'2643'
p724
aS'181'
p725
aS'18909'
p726
aS'4'
aS'1765'
p727
atRp728
sS'22751'
p729
g3
((lp730
g616
ag624
ag617
ag636
ag611
ag612
aS'4970'
p731
atRp732
sS'22750'
p733
g3
((lp734
g616
ag624
ag617
ag636
ag611
ag613
ag731
atRp735
sS'1056'
p736
g3
((lp737
S'796'
p738
aS'2211'
p739
aS'4926'
p740
aS'13848'
p741
aS'2423'
p742
aS'2424'
p743
aS'22955'
p744
aS'256'
p745
atRp746
sS'2223'
p747
g3
((lp748
S'2594'
p749
aS'2209'
p750
aS'629'
p751
aS'1426'
p752
atRp753
sS'5926'
p754
g3
((lp755
S'3912'
p756
aS'206'
p757
aS'2463'
p758
aS'2472'
p759
aS'1450'
p760
aS'6047'
p761
aS'1375'
p762
aS'256'
p763
aS'1338'
p764
atRp765
sS'141'
p766
g3
((lp767
g11
ag14
aS'40'
p768
aS'41'
p769
ag16
ag15
aS'1515'
p770
ag12
aS'166'
p771
ag89
ag10
aS'1765'
p772
atRp773
sS'612'
p774
g3
((lp775
S'883'
p776
aS'10'
p777
aS'13'
p778
aS'12'
p779
aS'780'
p780
aS'695'
p781
aS'2059'
p782
aS'2058'
p783
aS'311'
p784
aS'778'
p785
ag253
aS'1825'
p786
ag255
aS'2020'
p787
ag257
aS'1498'
p788
aS'932'
p789
aS'3257'
p790
aS'292'
p791
aS'2209'
p792
aS'3258'
p793
atRp794
sS'1273'
p795
g3
((lp796
S'300'
p797
aS'2246'
p798
aS'743'
p799
aS'1160'
p800
atRp801
sS'4256'
p802
g3
((ltRp803
sS'8249'
p804
g3
((lp805
S'20064'
p806
atRp807
sS'13378'
p808
g3
((lp809
S'22439'
p810
atRp811
sS'24487'
p812
g3
((lp813
S'1393'
p814
aS'342'
p815
atRp816
sS'1885'
p817
g3
((lp818
g337
aS'13'
p819
aS'2040'
p820
ag432
ag347
aS'2549'
p821
aS'191'
p822
aS'778'
p823
aS'2985'
p824
aS'392'
p825
aS'181'
p826
aS'1533'
p827
aS'65'
p828
aS'66'
p829
ag278
aS'80'
p830
atRp831
sS'13479'
p832
g3
((lp833
S'1160'
p834
aS'1182'
p835
aS'2234'
p836
aS'16106'
p837
aS'342'
p838
aS'292'
p839
atRp840
sS'2125'
p841
g3
((lp842
S'796'
p843
aS'203'
p844
aS'2643'
p845
aS'2547'
p846
aS'853'
p847
aS'4676'
p848
aS'2423'
p849
aS'11079'
p850
ag599
ag314
aS'1459'
p851
aS'868'
p852
atRp853
sS'4669'
p854
g3
((lp855
S'23114'
p856
aS'4664'
p857
atRp858
sS'4664'
p859
g3
((lp860
g856
aS'4669'
p861
atRp862
sS'2083'
p863
g3
((lp864
S'1843'
p865
aS'2594'
p866
aS'5987'
p867
aS'2985'
p868
aS'3544'
p869
atRp870
sS'944'
p871
g3
((lp872
g571
aS'770'
p873
aS'852'
p874
aS'49'
p875
ag576
aS'50'
p876
aS'1737'
p877
atRp878
sS'3111'
p879
g3
((lp880
S'883'
p881
aS'13'
p882
aS'2300'
p883
aS'3694'
p884
aS'3685'
p885
aS'1533'
p886
aS'1399'
p887
aS'1428'
p888
atRp889
sS'26266'
p890
g3
((lp891
g34
aS'26471'
p892
ag37
ag36
atRp893
sS'26268'
p894
g3
((lp895
g34
ag35
ag892
ag37
atRp896
sS'5078'
p897
g3
((lp898
S'1538'
p899
aS'2520'
p900
aS'5075'
p901
atRp902
sS'5072'
p903
g3
((lp904
S'4346'
p905
aS'1290'
p906
aS'743'
p907
aS'2427'
p908
atRp909
sS'5073'
p910
g3
((lp911
S'1874'
p912
aS'5121'
p913
aS'2985'
p914
atRp915
sS'492'
p916
g3
((lp917
S'6961'
p918
aS'3796'
p919
atRp920
sS'5075'
p921
g3
((lp922
S'1326'
p923
aS'211'
p924
aS'2423'
p925
aS'6281'
p926
aS'1524'
p927
aS'3071'
p928
aS'5078'
p929
aS'18909'
p930
atRp931
sS'24'
p932
g3
((lp933
S'3968'
p934
aS'868'
p935
aS'1702'
p936
aS'2834'
p937
aS'1023'
p938
ag91
aS'40'
p939
aS'376'
p940
ag158
ag159
aS'2952'
p941
aS'650'
p942
ag93
aS'1401'
p943
aS'1394'
p944
aS'2503'
p945
ag87
aS'162'
p946
aS'1765'
p947
atRp948
sS'3796'
p949
g3
((lp950
S'2623'
p951
aS'1774'
p952
aS'3807'
p953
aS'306'
p954
aS'412'
p955
aS'492'
p956
atRp957
sS'3790'
p958
g3
((lp959
S'2623'
p960
aS'2211'
p961
aS'5111'
p962
aS'4926'
p963
aS'2624'
p964
aS'13853'
p965
aS'3691'
p966
aS'1218'
p967
aS'3789'
p968
aS'22955'
p969
aS'3355'
p970
aS'49'
p971
aS'13848'
p972
atRp973
sS'3793'
p974
g3
((lp975
S'3007'
p976
aS'3792'
p977
aS'10578'
p978
aS'311'
p979
aS'228'
p980
atRp981
sS'3792'
p982
g3
((lp983
g338
aS'3793'
p984
aS'2985'
p985
atRp986
sS'4981'
p987
g3
((lp988
S'6961'
p989
aS'3691'
p990
aS'4163'
p991
aS'4679'
p992
aS'206'
p993
atRp994
sS'1375'
p995
g3
((lp996
S'13853'
p997
aS'2211'
p998
aS'22639'
p999
aS'1956'
p1000
aS'2463'
p1001
aS'3789'
p1002
aS'1874'
p1003
aS'3685'
p1004
aS'3355'
p1005
aS'5926'
p1006
aS'347'
p1007
aS'2688'
p1008
aS'6047'
p1009
aS'1376'
p1010
aS'2199'
p1011
aS'1826'
p1012
ag763
ag622
atRp1013
sS'1374'
p1014
g3
((lp1015
S'13853'
p1016
aS'4043'
p1017
aS'13848'
p1018
aS'3807'
p1019
aS'14004'
p1020
aS'2985'
p1021
aS'1874'
p1022
aS'169'
p1023
aS'228'
p1024
aS'1290'
p1025
atRp1026
sS'25820'
p1027
g3
((lp1028
g34
ag35
aS'3351'
p1029
ag892
ag36
atRp1030
sS'1376'
p1031
g3
((lp1032
S'256'
p1033
aS'1375'
p1034
aS'6047'
p1035
aS'3685'
p1036
atRp1037
sS'932'
p1038
g3
((lp1039
S'10'
p1040
aS'13'
p1041
aS'781'
p1042
aS'2040'
p1043
aS'612'
p1044
aS'2209'
p1045
aS'44'
p1046
aS'43'
p1047
aS'778'
p1048
aS'1850'
p1049
aS'111'
p1050
aS'353'
p1051
aS'342'
p1052
aS'103'
p1053
aS'80'
p1054
aS'81'
p1055
aS'2549'
p1056
atRp1057
sS'452'
p1058
g3
((lp1059
S'752'
p1060
aS'773'
p1061
aS'2234'
p1062
ag254
aS'1874'
p1063
aS'166'
p1064
aS'292'
p1065
aS'3051'
p1066
atRp1067
sS'3830'
p1068
g3
((lp1069
S'872'
p1070
aS'2234'
p1071
aS'3097'
p1072
atRp1073
sS'3935'
p1074
g3
((lp1075
S'3937'
p1076
aS'22955'
p1077
aS'18909'
p1078
aS'6224'
p1079
aS'2688'
p1080
aS'4970'
p1081
atRp1082
sS'3937'
p1083
g3
((lp1084
S'3935'
p1085
atRp1086
sS'1956'
p1087
g3
((lp1088
S'1290'
p1089
aS'1375'
p1090
aS'3097'
p1091
aS'6224'
p1092
aS'6742'
p1093
atRp1094
sS'22678'
p1095
g3
((lp1096
S'2882'
p1097
aS'22677'
p1098
aS'14977'
p1099
aS'3351'
p1100
aS'5763'
p1101
atRp1102
sS'22677'
p1103
g3
((lp1104
g1097
ag1099
ag1100
ag1101
aS'22678'
p1105
atRp1106
sS'13091'
p1107
g3
((lp1108
S'10578'
p1109
atRp1110
sS'829'
p1111
g3
((lp1112
S'868'
p1113
aS'780'
p1114
aS'1565'
p1115
aS'3010'
p1116
aS'7048'
p1117
aS'380'
p1118
aS'1533'
p1119
aS'179'
p1120
aS'1634'
p1121
aS'3807'
p1122
aS'2243'
p1123
aS'311'
p1124
aS'1765'
p1125
atRp1126
sS'376'
p1127
g3
((lp1128
S'24'
p1129
aS'1702'
p1130
aS'1634'
p1131
ag91
aS'40'
p1132
aS'380'
p1133
ag158
aS'353'
p1134
ag93
ag159
aS'166'
p1135
ag87
aS'2243'
p1136
atRp1137
sS'392'
p1138
g3
((lp1139
S'13'
p1140
aS'780'
p1141
aS'853'
p1142
aS'1964'
p1143
aS'1748'
p1144
aS'6440'
p1145
aS'1885'
p1146
aS'81'
p1147
atRp1148
sS'395'
p1149
g3
((lp1150
S'10'
p1151
aS'1774'
p1152
aS'629'
p1153
aS'872'
p1154
ag157
ag301
aS'80'
p1155
aS'81'
p1156
atRp1157
sS'80'
p1158
g3
((lp1159
S'353'
p1160
ag1151
aS'13'
p1161
aS'781'
p1162
aS'1850'
p1163
aS'2209'
p1164
aS'778'
p1165
aS'2234'
p1166
aS'190'
p1167
aS'1970'
p1168
aS'4000'
p1169
aS'347'
p1170
aS'111'
p1171
aS'395'
p1172
aS'932'
p1173
aS'1885'
p1174
ag1156
aS'44'
p1175
atRp1176
sS'81'
p1177
g3
((lp1178
S'2594'
p1179
ag1151
aS'1702'
p1180
aS'1023'
p1181
aS'40'
p1182
aS'6961'
p1183
ag189
aS'2549'
p1184
aS'43'
p1185
aS'2985'
p1186
aS'1970'
p1187
ag198
aS'392'
p1188
aS'111'
p1189
ag344
aS'72'
p1190
ag1172
aS'932'
p1191
ag1155
aS'44'
p1192
atRp1193
sS'87'
p1194
g3
((lp1195
S'10'
p1196
aS'12'
p1197
aS'2520'
p1198
aS'695'
p1199
aS'44'
p1200
aS'3503'
p1201
aS'1971'
p1202
aS'1748'
p1203
aS'2365'
p1204
aS'1665'
p1205
atRp1206
sS'796'
p1207
g3
((lp1208
S'203'
p1209
aS'2125'
p1210
aS'2520'
p1211
aS'1056'
p1212
ag742
ag743
aS'5887'
p1213
aS'2020'
p1214
ag745
atRp1215
sS'4043'
p1216
g3
((lp1217
g1016
aS'4163'
p1218
aS'1374'
p1219
aS'3685'
p1220
ag1024
atRp1221
sS'2300'
p1222
g3
((lp1223
S'883'
p1224
ag882
aS'4000'
p1225
aS'2209'
p1226
aS'3694'
p1227
aS'778'
p1228
aS'3111'
p1229
aS'1533'
p1230
ag497
aS'179'
p1231
aS'4541'
p1232
ag499
atRp1233
sS'5965'
p1234
g3
((lp1235
S'1222'
p1236
aS'3807'
p1237
aS'713'
p1238
aS'660'
p1239
aS'6317'
p1240
aS'6742'
p1241
aS'7048'
p1242
atRp1243
sS'584'
p1244
g3
((lp1245
g555
aS'581'
p1246
aS'13848'
p1247
aS'3807'
p1248
ag985
ag341
aS'416'
p1249
atRp1250
sS'581'
p1251
g3
((lp1252
S'752'
p1253
aS'584'
p1254
aS'298'
p1255
aS'853'
p1256
aS'31'
p1257
aS'3121'
p1258
aS'1135'
p1259
aS'1181'
p1260
aS'1595'
p1261
aS'49'
p1262
aS'179'
p1263
aS'297'
p1264
ag227
aS'342'
p1265
aS'3051'
p1266
atRp1267
sS'1135'
p1268
g3
((lp1269
S'1595'
p1270
aS'300'
p1271
aS'581'
p1272
aS'2334'
p1273
aS'1181'
p1274
atRp1275
sS'4622'
p1276
g3
((lp1277
S'5115'
p1278
aS'965'
p1279
aS'4649'
p1280
ag846
aS'1338'
p1281
ag847
aS'3010'
p1282
ag849
ag314
ag602
atRp1283
sS'4541'
p1284
g3
((lp1285
S'2300'
p1286
aS'4245'
p1287
aS'778'
p1288
aS'40'
p1289
aS'7048'
p1290
atRp1291
sS'2834'
p1292
g3
((lp1293
S'24'
p1294
aS'2520'
p1295
atRp1296
sS'3010'
p1297
g3
((lp1298
S'1623'
p1299
aS'4649'
p1300
aS'4565'
p1301
aS'31'
p1302
ag459
aS'4622'
p1303
aS'829'
p1304
aS'298'
p1305
ag225
aS'926'
p1306
atRp1307
sS'3691'
p1308
g3
((lp1309
S'22619'
p1310
ag1180
ag198
aS'3912'
p1311
aS'2624'
p1312
ag971
aS'206'
p1313
aS'22620'
p1314
aS'3790'
p1315
ag191
aS'4981'
p1316
aS'111'
p1317
aS'2171'
p1318
aS'2688'
p1319
aS'532'
p1320
aS'6224'
p1321
aS'1450'
p1322
ag185
aS'256'
p1323
aS'770'
p1324
atRp1325
sS'2594'
p1326
g3
((lp1327
g869
aS'1843'
p1328
aS'2083'
p1329
aS'629'
p1330
aS'872'
p1331
aS'2223'
p1332
aS'5987'
p1333
aS'1249'
p1334
aS'81'
p1335
atRp1336
sS'1222'
p1337
g3
((lp1338
S'781'
p1339
aS'2040'
p1340
aS'206'
p1341
aS'2209'
p1342
aS'2422'
p1343
aS'3860'
p1344
aS'4678'
p1345
aS'2246'
p1346
aS'5965'
p1347
atRp1348
sS'21943'
p1349
g3
((lp1350
S'18909'
p1351
aS'4022'
p1352
atRp1353
sS'1220'
p1354
g3
((lp1355
S'203'
p1356
aS'1326'
p1357
aS'179'
p1358
aS'1218'
p1359
aS'5426'
p1360
aS'1971'
p1361
aS'3355'
p1362
aS'1533'
p1363
aS'6440'
p1364
atRp1365
sS'629'
p1366
g3
((lp1367
g749
aS'10'
p1368
aS'13'
p1369
aS'12'
p1370
ag750
aS'2223'
p1371
aS'660'
p1372
aS'395'
p1373
atRp1374
sS'3598'
p1375
g3
((lp1376
S'16106'
p1377
aS'306'
p1378
aS'2688'
p1379
aS'6224'
p1380
aS'6742'
p1381
aS'2199'
p1382
atRp1383
sS'1874'
p1384
g3
((lp1385
S'14004'
p1386
aS'452'
p1387
aS'1182'
p1388
aS'1181'
p1389
aS'1375'
p1390
aS'1374'
p1391
aS'228'
p1392
aS'5073'
p1393
aS'3807'
p1394
atRp1395
sS'179'
p1396
g3
((lp1397
g531
aS'1326'
p1398
aS'1220'
p1399
aS'5212'
p1400
aS'3258'
p1401
ag532
aS'1964'
p1402
aS'2300'
p1403
aS'211'
p1404
aS'43'
p1405
aS'180'
p1406
aS'181'
p1407
aS'6224'
p1408
aS'1450'
p1409
ag1356
aS'581'
p1410
aS'2643'
p1411
aS'778'
p1412
aS'6440'
p1413
aS'13'
p1414
aS'1552'
p1415
aS'1828'
p1416
aS'5426'
p1417
aS'1971'
p1418
aS'4996'
p1419
aS'829'
p1420
aS'1533'
p1421
aS'1538'
p1422
atRp1423
sS'4346'
p1424
g3
((lp1425
S'5072'
p1426
aS'464'
p1427
ag908
atRp1428
sS'1878'
p1429
g3
((lp1430
S'416'
p1431
aS'4970'
p1432
aS'5525'
p1433
aS'2952'
p1434
atRp1435
sS'2882'
p1436
g3
((lp1437
g1098
ag1099
ag1100
ag1101
ag1105
atRp1438
sS'2052'
p1439
g3
((lp1440
S'65'
p1441
aS'1249'
p1442
aS'780'
p1443
aS'72'
p1444
aS'43'
p1445
atRp1446
sS'2059'
p1447
g3
((lp1448
S'13'
p1449
aS'612'
p1450
aS'2058'
p1451
aS'44'
p1452
aS'639'
p1453
aS'2209'
p1454
atRp1455
sS'2058'
p1456
g3
((lp1457
g776
aS'10'
p1458
ag778
ag779
aS'695'
p1459
aS'612'
p1460
ag257
ag253
ag782
ag255
ag359
atRp1461
sS'3694'
p1462
g3
((lp1463
g881
aS'13'
p1464
aS'4245'
p1465
aS'206'
p1466
aS'256'
p1467
aS'3807'
p1468
aS'2423'
p1469
aS'2424'
p1470
aS'3111'
p1471
aS'660'
p1472
aS'6317'
p1473
aS'342'
p1474
aS'2300'
p1475
aS'4970'
p1476
aS'1459'
p1477
atRp1478
sS'6281'
p1479
g3
((lp1480
S'1825'
p1481
aS'5212'
p1482
aS'5075'
p1483
atRp1484
sS'180'
p1485
g3
((lp1486
S'203'
p1487
ag1408
aS'1971'
p1488
aS'179'
p1489
ag1407
aS'1533'
p1490
aS'6440'
p1491
atRp1492
sS'181'
p1493
g3
((lp1494
S'2422'
p1495
ag1406
aS'4'
ag1489
aS'228'
p1496
aS'2946'
p1497
aS'1885'
p1498
aS'2246'
p1499
atRp1500
sS'6047'
p1501
g3
((lp1502
g1012
aS'2688'
p1503
aS'3912'
p1504
aS'2463'
p1505
aS'1376'
p1506
aS'22639'
p1507
aS'2424'
p1508
ag629
ag627
aS'5926'
p1509
ag1007
aS'1375'
p1510
ag1011
aS'1748'
p1511
aS'2423'
p1512
ag763
aS'4022'
p1513
ag764
atRp1514
sS'650'
p1515
g3
((lp1516
S'24'
p1517
aS'3764'
p1518
aS'1023'
p1519
ag80
aS'41'
p1520
aS'380'
p1521
aS'347'
p1522
atRp1523
sS'6048'
p1524
g3
((lp1525
g77
ag91
aS'3860'
p1526
ag96
ag82
ag158
aS'353'
p1527
ag93
ag159
aS'97'
p1528
ag101
atRp1529
sS'2623'
p1530
g3
((lp1531
S'13853'
p1532
ag556
aS'2624'
p1533
aS'13848'
p1534
ag967
aS'3796'
p1535
aS'3790'
p1536
aS'3355'
p1537
ag1248
atRp1538
sS'2624'
p1539
g3
((lp1540
S'2623'
p1541
aS'13853'
p1542
aS'3691'
p1543
aS'1218'
p1544
aS'3790'
p1545
aS'2171'
p1546
atRp1547
sS'22639'
p1548
g3
((lp1549
S'1375'
p1550
aS'6047'
p1551
aS'3685'
p1552
ag1505
atRp1553
sS'10'
p1554
g3
((lp1555
S'883'
p1556
aS'13'
p1557
aS'12'
p1558
aS'3229'
p1559
aS'770'
p1560
aS'695'
p1561
aS'612'
p1562
aS'2209'
p1563
aS'629'
p1564
aS'872'
p1565
aS'778'
p1566
ag1202
aS'660'
p1567
ag1172
aS'2058'
p1568
ag789
ag1155
ag1156
aS'87'
p1569
aS'97'
p1570
atRp1571
sS'13'
p1572
g3
((lp1573
g1556
aS'2472'
p1574
ag1564
aS'191'
p1575
aS'190'
p1576
aS'660'
p1577
aS'392'
p1578
ag299
aS'179'
p1579
aS'1748'
p1580
aS'80'
p1581
aS'695'
p1582
aS'2059'
p1583
aS'2300'
p1584
ag884
aS'5987'
p1585
aS'4'
aS'932'
p1586
aS'206'
p1587
aS'612'
p1588
aS'639'
p1589
aS'713'
p1590
ag1048
ag449
aS'3978'
p1591
aS'1885'
p1592
ag1570
aS'10'
p1593
aS'1702'
p1594
ag1558
aS'1555'
p1595
aS'781'
p1596
aS'1843'
p1597
aS'2234'
p1598
aS'3111'
p1599
aS'5910'
p1600
ag886
aS'2058'
p1601
aS'2209'
p1602
atRp1603
sS'12'
p1604
g3
((lp1605
g1556
ag1593
ag1557
aS'3229'
p1606
ag1560
ag1561
ag1460
ag783
aS'778'
p1607
aS'2234'
p1608
aS'190'
p1609
ag1202
ag1567
aS'1533'
p1610
ag1564
aS'2209'
p1611
ag1595
ag1569
ag1570
aS'781'
p1612
atRp1613
sS'2020'
p1614
g3
((lp1615
S'612'
p1616
aS'796'
p1617
ag784
atRp1618
sS'2023'
p1619
g3
((lp1620
S'732'
p1621
aS'1394'
p1622
aS'5426'
p1623
aS'206'
p1624
atRp1625
sS'883'
p1626
g3
((lp1627
g540
ag1609
aS'660'
p1628
aS'5887'
p1629
ag1471
aS'179'
p1630
ag1561
ag783
ag884
ag135
aS'2985'
p1631
ag1560
ag1460
ag58
aS'778'
p1632
aS'6718'
p1633
aS'1885'
p1634
ag1593
ag1557
ag1558
aS'3229'
p1635
aS'1843'
p1636
ag1475
aS'2234'
p1637
aS'1971'
p1638
ag1610
ag1563
aS'5212'
p1639
aS'1538'
p1640
atRp1641
sS'887'
p1642
g3
((lp1643
S'65'
p1644
aS'4'
aS'412'
p1645
aS'18571'
p1646
atRp1647
sS'14977'
p1648
g3
((lp1649
g1097
ag1098
ag1100
ag1101
ag1105
atRp1650
sS'6815'
p1651
g3
((lp1652
S'49'
p1653
aS'1828'
p1654
aS'2643'
p1655
aS'1459'
p1656
aS'6816'
p1657
atRp1658
sS'6816'
p1659
g3
((lp1660
g1655
aS'6815'
p1661
ag1656
atRp1662
sS'5212'
p1663
g3
((lp1664
S'883'
p1665
aS'1826'
p1666
ag595
aS'853'
p1667
ag603
ag597
aS'713'
p1668
aS'6281'
p1669
aS'1971'
p1670
aS'660'
p1671
ag1629
aS'179'
p1672
aS'2199'
p1673
aS'1538'
p1674
atRp1675
sS'6742'
p1676
g3
((lp1677
S'3598'
p1678
aS'306'
p1679
aS'1956'
p1680
aS'1450'
p1681
ag1092
aS'5965'
p1682
atRp1683
sS'4008'
p1684
g3
((lp1685
g434
aS'2040'
p1686
atRp1687
sS'4163'
p1688
g3
((lp1689
S'6961'
p1690
aS'4981'
p1691
aS'4043'
p1692
aS'179'
p1693
aS'1538'
p1694
atRp1695
sS'4161'
p1696
g3
((lp1697
S'1646'
p1698
aS'773'
p1699
aS'2423'
p1700
aS'4331'
p1701
aS'4845'
p1702
aS'103'
p1703
aS'4970'
p1704
atRp1705
sS'1964'
p1706
g3
((lp1707
g322
ag451
ag820
aS'695'
p1708
aS'1843'
p1709
ag44
aS'872'
p1710
aS'190'
p1711
ag268
ag324
aS'778'
p1712
aS'1748'
p1713
aS'169'
p1714
aS'179'
p1715
aS'392'
p1716
aS'103'
p1717
ag436
aS'660'
p1718
aS'5910'
p1719
atRp1720
sS'4002'
p1721
g3
((lp1722
S'1774'
p1723
aS'206'
p1724
atRp1725
sS'3978'
p1726
g3
((lp1727
S'2300'
p1728
aS'13'
p1729
aS'1533'
p1730
aS'43'
p1731
aS'386'
p1732
atRp1733
sS'328'
p1734
g3
((lp1735
S'748'
p1736
ag700
atRp1737
sS'203'
p1738
g3
((lp1739
S'796'
p1740
aS'5426'
p1741
aS'2125'
p1742
aS'1220'
p1743
ag1411
aS'50'
p1744
aS'180'
p1745
aS'179'
p1746
ag1398
aS'1459'
p1747
aS'868'
p1748
atRp1749
sS'771'
p1750
g3
((lp1751
S'1160'
p1752
atRp1753
sS'770'
p1754
g3
((lp1755
S'883'
p1756
aS'10'
p1757
aS'12'
p1758
aS'1160'
p1759
aS'773'
p1760
aS'1023'
p1761
aS'695'
p1762
aS'22541'
p1763
aS'44'
p1764
aS'40'
p1765
aS'1290'
p1766
ag550
aS'2171'
p1767
aS'4'
aS'3691'
p1768
aS'1665'
p1769
aS'256'
p1770
aS'944'
p1771
aS'65'
p1772
atRp1773
sS'773'
p1774
g3
((lp1775
g1060
aS'770'
p1776
aS'4161'
p1777
aS'1774'
p1778
aS'748'
p1779
ag716
aS'452'
p1780
ag597
ag586
ag603
ag604
aS'298'
p1781
ag701
ag1667
ag1702
ag1064
ag1701
ag1704
aS'3912'
p1782
atRp1783
sS'206'
p1784
g3
((lp1785
S'2472'
p1786
aS'4245'
p1787
aS'4672'
p1788
aS'1222'
p1789
aS'1774'
p1790
aS'4679'
p1791
aS'4678'
p1792
aS'3691'
p1793
aS'4002'
p1794
aS'2209'
p1795
aS'3694'
p1796
ag483
aS'7048'
p1797
aS'4981'
p1798
aS'5926'
p1799
ag178
ag387
aS'1338'
p1800
ag172
ag173
aS'13'
p1801
aS'6861'
p1802
ag478
ag760
aS'2023'
p1803
aS'1665'
p1804
ag1476
ag1477
atRp1805
sS'778'
p1806
g3
((lp1807
S'883'
p1808
ag451
ag251
ag1628
aS'1498'
p1809
ag1579
aS'80'
p1810
ag492
ag444
aS'2209'
p1811
aS'5987'
p1812
ag1586
ag247
aS'612'
p1813
aS'713'
p1814
aS'39'
p1815
ag1633
ag1232
ag1174
ag1066
aS'10'
p1816
ag1041
aS'12'
p1817
ag1162
ag493
aS'2234'
p1818
ag786
aS'1533'
p1819
aS'2300'
p1820
ag1065
ag1600
atRp1821
sS'3355'
p1822
g3
((lp1823
S'2623'
p1824
ag1180
ag1012
aS'5111'
p1825
aS'1828'
p1826
aS'1220'
p1827
aS'13848'
p1828
aS'1218'
p1829
ag1002
aS'3790'
p1830
ag191
ag1317
aS'1375'
p1831
ag620
ag1011
ag1503
ag189
ag185
atRp1832
sS'3351'
p1833
g3
((lp1834
g1097
ag1105
ag1099
aS'306'
p1835
aS'17214'
p1836
aS'25820'
p1837
ag1098
ag1101
atRp1838
sS'72'
p1839
g3
((lp1840
S'903'
p1841
aS'2052'
p1842
aS'81'
p1843
aS'43'
p1844
aS'66'
p1845
atRp1846
sS'6861'
p1847
g3
((lp1848
S'6840'
p1849
aS'206'
p1850
atRp1851
sS'3051'
p1852
g3
((lp1853
g247
aS'581'
p1854
ag251
ag1062
ag254
aS'292'
p1855
atRp1856
sS'20064'
p1857
g3
((lp1858
S'8249'
p1859
atRp1860
sS'2332'
p1861
g3
((lp1862
S'5111'
p1863
aS'2423'
p1864
aS'2334'
p1865
atRp1866
sS'2334'
p1867
g3
((lp1868
S'2332'
p1869
aS'1135'
p1870
ag1274
atRp1871
sS'2234'
p1872
g3
((lp1873
S'883'
p1874
ag247
aS'13'
p1875
aS'12'
p1876
aS'3830'
p1877
aS'1828'
p1878
aS'695'
p1879
ag356
aS'2209'
p1880
ag251
aS'778'
p1881
aS'2268'
p1882
ag250
aS'80'
p1883
ag359
aS'13479'
p1884
ag257
ag1066
atRp1885
sS'868'
p1886
g3
((lp1887
S'24'
p1888
aS'203'
p1889
ag944
aS'2125'
p1890
ag457
aS'31'
p1891
aS'2643'
p1892
aS'11079'
p1893
aS'829'
p1894
ag468
aS'1533'
p1895
aS'4'
aS'103'
p1896
aS'92'
p1897
aS'2422'
p1898
ag474
ag401
aS'2001'
p1899
atRp1900
sS'6961'
p1901
g3
((lp1902
g1691
aS'81'
p1903
aS'4163'
p1904
aS'492'
p1905
atRp1906
sS'660'
p1907
g3
((lp1908
g1808
aS'5111'
p1909
ag1564
aS'191'
p1910
aS'5887'
p1911
aS'65'
p1912
aS'3258'
p1913
ag1667
aS'1964'
p1914
aS'3694'
p1915
ag135
aS'1401'
p1916
aS'5965'
p1917
ag595
ag597
ag58
ag1632
ag1633
aS'3544'
p1918
aS'10'
p1919
ag274
aS'12'
p1920
ag603
aS'695'
p1921
ag1636
aS'6317'
p1922
ag139
atRp1923
sS'2520'
p1924
g3
((lp1925
S'87'
p1926
ag467
ag468
aS'796'
p1927
ag1891
ag462
aS'3506'
p1928
aS'1565'
p1929
aS'5078'
p1930
aS'311'
p1931
aS'2834'
p1932
ag474
atRp1933
sS'4679'
p1934
g3
((lp1935
S'4981'
p1936
aS'4678'
p1937
aS'206'
p1938
atRp1939
sS'695'
p1940
g3
((lp1941
S'883'
p1942
aS'660'
p1943
ag1770
aS'87'
p1944
aS'3258'
p1945
aS'1964'
p1946
aS'2058'
p1947
aS'40'
p1948
aS'3257'
p1949
aS'2365'
p1950
aS'770'
p1951
aS'612'
p1952
aS'639'
p1953
aS'778'
p1954
aS'97'
p1955
ag777
aS'13'
p1956
aS'12'
p1957
aS'1825'
p1958
ag1637
aS'1533'
p1959
ag792
atRp1960
sS'4676'
p1961
g3
((lp1962
g72
ag78
aS'2125'
p1963
ag845
ag83
ag1522
ag86
aS'2547'
p1964
aS'1459'
p1965
atRp1966
sS'3121'
p1967
g3
((lp1968
S'581'
p1969
ag219
ag221
ag473
aS'2246'
p1970
ag228
atRp1971
sS'4672'
p1972
g3
((lp1973
S'2212'
p1974
aS'2423'
p1975
aS'4678'
p1976
aS'1393'
p1977
ag616
aS'4245'
p1978
aS'2688'
p1979
ag611
aS'206'
p1980
aS'22751'
p1981
aS'22750'
p1982
ag731
aS'7048'
p1983
atRp1984
sS'1469'
p1985
g3
((lp1986
S'223'
p1987
aS'386'
p1988
aS'220'
p1989
atRp1990
sS'2246'
p1991
g3
((lp1992
S'3121'
p1993
aS'2422'
p1994
aS'181'
p1995
aS'1222'
p1996
aS'1273'
p1997
atRp1998
sS'2243'
p1999
g3
((lp2000
S'748'
p2001
ag15
ag11
ag381
ag14
ag16
aS'4'
ag12
ag10
aS'1528'
p2002
ag1800
ag710
ag90
ag380
aS'2427'
p2003
aS'380'
p2004
ag702
aS'965'
p2005
aS'39'
p2006
aS'732'
p2007
aS'829'
p2008
aS'1515'
p2009
ag701
aS'1765'
p2010
aS'376'
p2011
atRp2012
sS'2463'
p2013
g3
((lp2014
g1507
ag1509
ag762
ag1551
ag763
aS'532'
p2015
atRp2016
sS'13848'
p2017
g3
((lp2018
S'2623'
p2019
aS'584'
p2020
aS'5111'
p2021
ag963
aS'1056'
p2022
ag1532
aS'1218'
p2023
aS'3789'
p2024
aS'3790'
p2025
aS'3355'
p2026
aS'1374'
p2027
atRp2028
sS'6440'
p2029
g3
((lp2030
g531
ag1404
ag444
ag1399
ag1712
aS'1971'
p2031
ag1709
aS'180'
p2032
aS'179'
p2033
aS'392'
p2034
ag1640
atRp2035
sS'1828'
p2036
g3
((lp2037
S'2643'
p2038
aS'5111'
p2039
aS'1826'
p2040
aS'6815'
p2041
aS'2234'
p2042
aS'1737'
p2043
aS'5426'
p2044
aS'3355'
p2045
aS'179'
p2046
aS'1459'
p2047
aS'1538'
p2048
atRp2049
sS'1825'
p2050
g3
((lp2051
S'3258'
p2052
aS'2040'
p2053
aS'6281'
p2054
ag595
ag1667
aS'612'
p2055
aS'639'
p2056
ag597
aS'778'
p2057
ag586
ag604
ag792
aS'695'
p2058
atRp2059
sS'1826'
p2060
g3
((lp2061
S'1828'
p2062
ag629
ag676
ag625
ag2043
aS'1375'
p2063
ag627
ag677
ag620
ag631
ag614
aS'5212'
p2064
ag637
atRp2065
sS'4402'
p2066
g3
((lp2067
S'965'
p2068
aS'16003'
p2069
aS'2212'
p2070
atRp2071
sS'416'
p2072
g3
((lp2073
S'103'
p2074
aS'584'
p2075
aS'532'
p2076
aS'1878'
p2077
aS'1426'
p2078
atRp2079
sS'6317'
p2080
g3
((lp2081
S'3694'
p2082
aS'713'
p2083
aS'5987'
p2084
ag1472
aS'5887'
p2085
aS'5965'
p2086
atRp2087
sS'412'
p2088
g3
((lp2089
S'2211'
p2090
aS'887'
p2091
aS'1023'
p2092
aS'464'
p2093
aS'908'
p2094
aS'3796'
p2095
aS'40'
p2096
aS'4'
aS'342'
p2097
aS'44'
p2098
aS'2952'
p2099
atRp2100
sS'4970'
p2101
g3
((lp2102
g1702
aS'2423'
p2103
ag1078
aS'773'
p2104
ag1466
aS'3935'
p2105
aS'16107'
p2106
ag616
aS'1826'
p2107
ag1796
ag617
aS'965'
p2108
aS'2688'
p2109
ag611
aS'2199'
p2110
ag1981
ag1982
aS'4161'
p2111
ag1477
aS'1878'
p2112
ag1433
atRp2113
sS'926'
p2114
g3
((lp2115
S'166'
p2116
aS'3010'
p2117
aS'1634'
p2118
aS'1338'
p2119
ag383
atRp2120
sS'311'
p2121
g3
((lp2122
S'1623'
p2123
aS'2520'
p2124
ag1616
aS'3010'
p2125
aS'3793'
p2126
aS'7048'
p2127
aS'829'
p2128
ag976
ag787
aS'4565'
p2129
aS'2256'
p2130
aS'1290'
p2131
ag1929
aS'298'
p2132
atRp2133
sS'317'
p2134
g3
((lp2135
S'732'
p2136
aS'944'
p2137
ag571
ag577
aS'852'
p2138
atRp2139
sS'5092'
p2140
g3
((lp2141
S'2427'
p2142
atRp2143
sS'4120'
p2144
g3
((lp2145
S'1623'
p2146
aS'1774'
p2147
aS'1424'
p2148
aS'2427'
p2149
aS'3067'
p2150
aS'169'
p2151
atRp2152
sS'22851'
p2153
g3
((lp2154
g72
aS'4676'
p2155
ag78
ag1964
aS'347'
p2156
atRp2157
sS'380'
p2158
g3
((lp2159
S'1702'
p2160
aS'4649'
p2161
aS'2243'
p2162
aS'732'
p2163
aS'829'
p2164
aS'4'
aS'650'
p2165
aS'387'
p2166
aS'1515'
p2167
aS'1394'
p2168
ag2002
ag2011
atRp2169
sS'386'
p2170
g3
((lp2171
S'852'
p2172
aS'853'
p2173
ag1731
aS'732'
p2174
aS'1469'
p2175
aS'387'
p2176
aS'3978'
p2177
aS'223'
p2178
aS'220'
p2179
atRp2180
sS'387'
p2181
g3
((lp2182
S'718'
p2183
aS'717'
p2184
aS'872'
p2185
aS'380'
p2186
aS'732'
p2187
aS'4'
aS'386'
p2188
atRp2189
sS'3729'
p2190
g3
((lp2191
S'4845'
p2192
atRp2193
sS'1646'
p2194
g3
((lp2195
S'4161'
p2196
atRp2197
sS'780'
p2198
g3
((lp2199
S'903'
p2200
aS'2052'
p2201
aS'612'
p2202
aS'781'
p2203
aS'1023'
p2204
aS'150'
p2205
aS'717'
p2206
aS'1428'
p2207
aS'718'
p2208
ag1445
aS'40'
p2209
aS'1970'
p2210
aS'392'
p2211
aS'829'
p2212
aS'65'
p2213
ag409
ag1442
aS'111'
p2214
atRp2215
sS'781'
p2216
g3
((lp2217
S'13'
p2218
aS'12'
p2219
aS'780'
p2220
aS'1222'
p2221
aS'1843'
p2222
aS'2209'
p2223
ag1175
ag1165
aS'347'
p2224
ag73
aS'1498'
p2225
aS'932'
p2226
ag1810
atRp2227
sS'18909'
p2228
g3
((lp2229
S'1326'
p2230
aS'21943'
p2231
ag2105
ag925
ag928
aS'2946'
p2232
ag1081
aS'5075'
p2233
atRp2234
sS'18571'
p2235
g3
((lp2236
S'887'
p2237
atRp2238
sS'578'
p2239
g3
((lp2240
S'903'
p2241
ag2138
ag2137
ag576
ag577
aS'4'
aS'66'
p2242
aS'1394'
p2243
atRp2244
sS'3007'
p2245
g3
((lp2246
S'31'
p2247
ag979
ag2126
aS'4565'
p2248
atRp2249
sS'65'
p2250
g3
((lp2251
S'903'
p2252
aS'1702'
p2253
aS'2052'
p2254
aS'780'
p2255
aS'770'
p2256
aS'660'
p2257
aS'4'
aS'66'
p2258
aS'887'
p2259
aS'1885'
p2260
aS'162'
p2261
atRp2262
sS'66'
p2263
g3
((lp2264
S'1885'
p2265
ag2200
ag405
ag406
aS'852'
p2266
aS'2985'
p2267
ag578
aS'4'
ag411
ag412
ag408
aS'65'
p2268
atRp2269
sS'2199'
p2270
g3
((lp2271
g629
aS'3598'
p2272
ag609
ag676
ag625
ag2063
ag627
aS'5212'
p2273
ag620
ag631
ag677
ag637
atRp2274
sS'256'
p2275
g3
((lp2276
S'4245'
p2277
ag738
ag1212
aS'695'
p2278
aS'3691'
p2279
aS'3694'
p2280
ag1948
aS'5926'
p2281
ag202
aS'1375'
p2282
aS'4'
aS'1376'
p2283
aS'1702'
p2284
aS'6047'
p2285
aS'770'
p2286
aS'2463'
p2287
aS'853'
p2288
aS'2423'
p2289
aS'2424'
p2290
aS'39'
p2291
aS'306'
p2292
aS'7048'
p2293
aS'965'
p2294
aS'2211'
p2295
aS'3789'
p2296
ag200
aS'3685'
p2297
aS'532'
p2298
aS'1428'
p2299
aS'292'
p2300
atRp2301
sS'257'
p2302
g3
((ltRp2303
sS'23114'
p2304
g3
((lp2305
g857
ag861
atRp2306
sS'1424'
p2307
g3
((lp2308
S'1774'
p2309
aS'2211'
p2310
aS'1426'
p2311
aS'4120'
p2312
ag2149
aS'166'
p2313
atRp2314
sS'1426'
p2315
g3
((lp2316
g2309
ag2310
aS'1424'
p2317
aS'853'
p2318
aS'2223'
p2319
aS'306'
p2320
aS'416'
p2321
aS'292'
p2322
atRp2323
sS'2209'
p2324
g3
((lp2325
S'883'
p2326
aS'1222'
p2327
aS'629'
p2328
aS'80'
p2329
aS'695'
p2330
aS'2059'
p2331
aS'2300'
p2332
aS'2223'
p2333
aS'932'
p2334
ag1815
ag1341
ag2055
ag1453
aS'778'
p2335
aS'3130'
p2336
ag1816
aS'13'
p2337
ag1817
aS'781'
p2338
ag786
ag1818
aS'1843'
p2339
ag1819
atRp2340
sS'732'
p2341
g3
((lp2342
S'386'
p2343
ag2266
aS'2023'
p2344
aS'317'
p2345
aS'380'
p2346
aS'4'
ag572
aS'387'
p2347
aS'1394'
p2348
aS'2243'
p2349
atRp2350
sS'2365'
p2351
g3
((lp2352
S'87'
p2353
aS'1971'
p2354
ag1199
atRp2355
sS'639'
p2356
g3
((lp2357
S'13'
p2358
ag356
aS'695'
p2359
ag2331
ag1454
ag822
ag253
aS'1971'
p2360
aS'1825'
p2361
ag255
ag250
ag285
ag359
atRp2362
sS'1218'
p2363
g3
((lp2364
g1532
aS'2624'
p2365
ag960
ag1534
aS'1220'
p2366
ag1536
ag1537
atRp2367
sS'2423'
p2368
g3
((lp2369
g923
ag2277
ag586
ag604
aS'256'
p2370
ag2233
ag738
ag1212
ag1667
aS'1428'
p2371
ag2280
ag484
aS'6047'
p2372
aS'1399'
p2373
ag1702
ag595
ag169
aS'2424'
p2374
aS'2332'
p2375
ag1701
ag928
aS'4622'
p2376
ag1797
ag478
aS'2125'
p2377
ag1777
aS'1023'
p2378
ag603
aS'908'
p2379
ag1792
ag930
aS'532'
p2380
ag1704
atRp2381
sS'2424'
p2382
g3
((lp2383
g738
aS'2211'
p2384
ag1465
ag1212
aS'206'
p2385
ag2371
aS'2423'
p2386
aS'3694'
p2387
ag2372
ag178
aS'256'
p2388
aS'7048'
p2389
atRp2390
sS'2427'
p2391
g3
((lp2392
g2148
aS'853'
p2393
aS'5092'
p2394
ag2312
ag370
aS'3067'
p2395
aS'169'
p2396
aS'298'
p2397
ag1426
ag905
ag349
aS'1393'
p2398
aS'31'
p2399
aS'2243'
p2400
atRp2401
sS'4445'
p2402
g3
((lp2403
S'4008'
p2404
aS'2040'
p2405
atRp2406
sS'3725'
p2407
g3
((lp2408
S'1634'
p2409
aS'347'
p2410
aS'1393'
p2411
atRp2412
sS'166'
p2413
g3
((lp2414
g1060
aS'1634'
p2415
aS'1424'
p2416
ag1061
aS'141'
p2417
ag1780
aS'43'
p2418
aS'92'
p2419
aS'31'
p2420
aS'926'
p2421
aS'376'
p2422
atRp2423
sS'162'
p2424
g3
((lp2425
g187
ag391
aS'1702'
p2426
ag190
aS'1524'
p2427
aS'3071'
p2428
aS'65'
p2429
aS'298'
p2430
ag1896
atRp2431
sS'965'
p2432
g3
((lp2433
S'13853'
p2434
aS'4970'
p2435
aS'4245'
p2436
aS'16106'
p2437
aS'306'
p2438
aS'4622'
p2439
aS'2688'
p2440
aS'4402'
p2441
aS'256'
p2442
aS'2243'
p2443
atRp2444
sS'3685'
p2445
g3
((lp2446
g2119
aS'4043'
p2447
aS'22639'
p2448
aS'3111'
p2449
ag887
aS'1375'
p2450
aS'4565'
p2451
aS'1376'
p2452
aS'1748'
p2453
aS'256'
p2454
ag386
atRp2455
sS'1450'
p2456
g3
((lp2457
S'22619'
p2458
aS'179'
p2459
aS'206'
p2460
aS'3691'
p2461
aS'5926'
p2462
aS'2171'
p2463
aS'6224'
p2464
aS'6742'
p2465
aS'1538'
p2466
atRp2467
sS'1515'
p2468
g3
((lp2469
S'1765'
p2470
aS'141'
p2471
aS'380'
p2472
aS'353'
p2473
aS'1394'
p2474
aS'2243'
p2475
atRp2476
sS'10578'
p2477
g3
((lp2478
S'1182'
p2479
aS'13091'
p2480
aS'14004'
p2481
aS'3793'
p2482
ag980
atRp2483
sS'1459'
p2484
g3
((lp2485
g1661
ag1657
aS'66'
p2486
ag457
ag672
ag848
ag1796
ag460
aS'203'
p2487
ag1466
aS'2643'
p2488
aS'1828'
p2489
aS'903'
p2490
aS'1026'
p2491
aS'2125'
p2492
aS'4171'
p2493
ag1891
aS'50'
p2494
aS'2001'
p2495
aS'1533'
p2496
ag1476
ag467
atRp2497
sS'464'
p2498
g3
((lp2499
S'4346'
p2500
aS'1885'
p2501
aS'2985'
p2502
aS'412'
p2503
atRp2504
sS'5115'
p2505
g3
((lp2506
g2155
aS'4622'
p2507
ag78
ag2156
ag83
atRp2508
sS'5111'
p2509
g3
((lp2510
S'2332'
p2511
aS'1828'
p2512
aS'49'
p2513
aS'13848'
p2514
aS'3789'
p2515
aS'3790'
p2516
aS'660'
p2517
aS'3355'
p2518
ag515
ag630
atRp2519
sS'3860'
p2520
g3
((lp2521
S'1555'
p2522
aS'1222'
p2523
aS'4000'
p2524
aS'191'
p2525
aS'1498'
p2526
aS'6048'
p2527
aS'97'
p2528
atRp2529
sS'5887'
p2530
g3
((lp2531
g1665
aS'796'
p2532
aS'713'
p2533
aS'5987'
p2534
aS'660'
p2535
ag1639
aS'6317'
p2536
atRp2537
sS'22817'
p2538
g3
((lp2539
g616
ag617
ag1979
ag1981
ag1982
ag731
atRp2540
sS'3430'
p2541
g3
((lp2542
S'2256'
p2543
aS'4565'
p2544
atRp2545
sS'872'
p2546
g3
((lp2547
S'2594'
p2548
aS'10'
p2549
aS'3830'
p2550
aS'306'
p2551
ag298
aS'353'
p2552
aS'3503'
p2553
aS'190'
p2554
aS'40'
p2555
aS'5525'
p2556
aS'4000'
p2557
ag300
aS'4'
aS'395'
p2558
aS'387'
p2559
ag658
aS'103'
p2560
ag161
ag1714
atRp2561
sS'22955'
p2562
g3
((lp2563
S'3935'
p2564
aS'3790'
p2565
aS'1056'
p2566
ag740
atRp2567
sS'6224'
p2568
g3
((lp2569
g2458
aS'3935'
p2570
aS'3691'
p2571
ag1678
ag1679
aS'180'
p2572
ag1680
aS'1450'
p2573
aS'179'
p2574
ag1093
atRp2575
sS'4845'
p2576
g3
((lp2577
g2103
ag2111
ag2104
ag2385
aS'31'
p2578
aS'2643'
p2579
ag173
ag2389
aS'2160'
p2580
aS'5128'
p2581
aS'3729'
p2582
aS'8674'
p2583
ag1704
aS'1459'
p2584
atRp2585
sS'3912'
p2586
g3
((lp2587
S'773'
p2588
aS'3691'
p2589
aS'5926'
p2590
ag619
aS'6047'
p2591
ag1008
atRp2592
sS'1249'
p2593
g3
((lp2594
S'2594'
p2595
aS'2052'
p2596
aS'780'
p2597
atRp2598
sS'3544'
p2599
g3
((lp2600
g866
ag374
ag400
ag1329
aS'660'
p2601
atRp2602
sS'3229'
p2603
g3
((lp2604
S'883'
p2605
aS'10'
p2606
aS'12'
p2607
atRp2608
sS'1971'
p2609
g3
((lp2610
S'883'
p2611
aS'1220'
p2612
aS'5212'
p2613
aS'179'
p2614
ag1569
ag1401
ag265
ag1403
ag1404
ag2032
aS'1533'
p2615
aS'2365'
p2616
aS'3764'
p2617
aS'639'
p2618
ag1413
ag1196
ag1197
aS'5426'
p2619
aS'4996'
p2620
ag1225
aS'1748'
p2621
ag1719
aS'1538'
p2622
atRp2623
sS'1970'
p2624
g3
((lp2625
S'780'
p2626
ag469
ag1163
aS'31'
p2627
aS'40'
p2628
aS'347'
p2629
aS'111'
p2630
aS'80'
p2631
aS'81'
p2632
aS'44'
p2633
atRp2634
sS'4000'
p2635
g3
((lp2636
S'2300'
p2637
aS'3860'
p2638
aS'872'
p2639
aS'190'
p2640
aS'1971'
p2641
aS'191'
p2642
aS'3130'
p2643
ag303
aS'2503'
p2644
aS'97'
p2645
atRp2646
sS'353'
p2647
g3
((lp2648
S'111'
p2649
aS'80'
p2650
ag350
ag11
ag1184
aS'872'
p2651
ag14
ag1186
ag16
ag1191
aS'1401'
p2652
ag10
ag89
ag90
aS'3130'
p2653
aS'6048'
p2654
aS'1702'
p2655
aS'4996'
p2656
ag371
aS'1515'
p2657
aS'376'
p2658
ag102
atRp2659
sS'908'
p2660
g3
((lp2661
g150
ag2098
aS'2423'
p2662
aS'191'
p2663
ag275
ag2096
aS'412'
p2664
aS'1498'
p2665
atRp2666
sS'6718'
p2667
g3
((lp2668
g1808
ag442
ag1597
aS'5987'
p2669
ag1814
ag1632
ag1628
atRp2670
sS'211'
p2671
g3
((lp2672
S'1326'
p2673
aS'179'
p2674
aS'1971'
p2675
aS'2001'
p2676
aS'6440'
p2677
aS'7043'
p2678
aS'5075'
p2679
atRp2680
sS'1774'
p2681
g3
((lp2682
g2318
ag2310
aS'3796'
p2683
aS'206'
p2684
ag2317
aS'773'
p2685
ag2311
aS'4002'
p2686
aS'4120'
p2687
aS'306'
p2688
aS'169'
p2689
aS'395'
p2690
atRp2691
sS'4'
g3
((lp2692
S'578'
p2693
aS'887'
p2694
aS'65'
p2695
aS'66'
p2696
ag410
ag186
aS'15327'
p2697
aS'872'
p2698
ag2555
aS'181'
p2699
aS'2243'
p2700
aS'770'
p2701
aS'868'
p2702
ag2291
ag2346
aS'387'
p2703
aS'13'
p2704
aS'903'
p2705
aS'1702'
p2706
ag2007
ag200
ag202
aS'412'
p2707
atRp2708
sS'3764'
p2709
g3
((lp2710
S'1971'
p2711
aS'650'
p2712
atRp2713
sS'4331'
p2714
g3
((lp2715
g1700
ag1777
ag1699
atRp2716
sS'4649'
p2717
g3
((lp2718
S'380'
p2719
aS'3010'
p2720
ag1303
atRp2721
sS'3130'
p2722
g3
((lp2723
S'4000'
p2724
aS'2209'
p2725
aS'3503'
p2726
aS'353'
p2727
atRp2728
sS'4565'
p2729
g3
((lp2730
g2001
aS'3010'
p2731
aS'311'
p2732
aS'3685'
p2733
aS'3430'
p2734
aS'3007'
p2735
aS'2256'
p2736
aS'7048'
p2737
ag706
atRp2738
sS'6022'
p2739
g3
((lp2740
S'4022'
p2741
atRp2742
sS'1552'
p2743
g3
((lp2744
S'1394'
p2745
aS'43'
p2746
aS'179'
p2747
atRp2748
sS'1555'
p2749
g3
((lp2750
S'13'
p2751
aS'12'
p2752
aS'3860'
p2753
aS'347'
p2754
aS'111'
p2755
aS'97'
p2756
atRp2757
sS'50'
p2758
g3
((lp2759
g2291
ag2284
aS'49'
p2760
aS'31'
p2761
aS'203'
p2762
aS'1737'
p2763
aS'1459'
p2764
ag202
aS'4'
ag186
aS'944'
p2765
atRp2766
sS'532'
p2767
g3
((lp2768
S'2463'
p2769
aS'1428'
p2770
aS'2423'
p2771
aS'416'
p2772
aS'3691'
p2773
aS'256'
p2774
atRp2775
sS'2256'
p2776
g3
((lp2777
S'3430'
p2778
aS'311'
p2779
ag2544
atRp2780
sS'13853'
p2781
g3
((lp2782
S'965'
p2783
aS'2624'
p2784
ag2019
ag1534
ag2023
ag1017
aS'3790'
p2785
aS'1375'
p2786
ag1219
ag1024
atRp2787
sS'1326'
p2788
g3
((lp2789
S'203'
p2790
ag1411
ag924
ag925
ag1741
aS'1524'
p2791
aS'3071'
p2792
aS'18909'
p2793
aS'179'
p2794
aS'1220'
p2795
ag2233
atRp2796
sS'2472'
p2797
g3
((lp2798
S'2946'
p2799
ag1804
ag1801
aS'5926'
p2800
aS'206'
p2801
atRp2802
sS'5018'
p2803
g3
((ltRp2804
sS'111'
p2805
g3
((lp2806
S'191'
p2807
aS'190'
p2808
aS'80'
p2809
aS'81'
p2810
ag77
ag11
ag1163
ag189
aS'2549'
p2811
ag14
ag82
ag2224
aS'932'
p2812
ag87
ag10
ag89
ag90
ag91
ag198
ag93
ag94
aS'13'
p2813
ag96
aS'780'
p2814
ag98
ag331
ag1168
aS'353'
p2815
ag101
aS'5910'
p2816
ag102
atRp2817
sS'5763'
p2818
g3
((lp2819
g1097
ag1099
ag1100
aS'9598'
p2820
ag1105
ag688
ag1098
atRp2821
sS'1850'
p2822
g3
((lp2823
S'1702'
p2824
ag192
ag1168
ag2630
ag1173
ag2631
ag197
atRp2825
sS'1524'
p2826
g3
((lp2827
g2428
aS'1326'
p2828
aS'162'
p2829
aS'5075'
p2830
atRp2831
sS'2171'
p2832
g3
((lp2833
g2291
ag2284
aS'2624'
p2834
aS'3691'
p2835
ag200
aS'2688'
p2836
aS'4'
aS'1450'
p2837
aS'479'
p2838
ag186
aS'770'
p2839
atRp2840
sS'1399'
p2841
g3
((lp2842
S'2211'
p2843
aS'2423'
p2844
ag2449
ag885
aS'1401'
p2845
ag376
atRp2846
sS'9462'
p2847
g3
((lp2848
g687
ag2820
atRp2849
sS'1394'
p2850
g3
((lp2851
g1888
ag935
aS'578'
p2852
ag1621
aS'2422'
p2853
ag1623
aS'380'
p2854
aS'1552'
p2855
aS'2023'
p2856
aS'1515'
p2857
atRp2858
sS'1528'
p2859
g3
((lp2860
S'748'
p2861
aS'380'
p2862
aS'1290'
p2863
aS'1765'
p2864
aS'2243'
p2865
atRp2866
sS'300'
p2867
g3
((lp2868
S'1623'
p2869
aS'1273'
p2870
aS'1160'
p2871
ag221
ag222
aS'1135'
p2872
ag224
aS'743'
p2873
ag473
ag226
ag228
atRp2874
sS'306'
p2875
g3
((lp2876
S'1774'
p2877
ag2683
aS'1426'
p2878
aS'3807'
p2879
aS'3598'
p2880
aS'872'
p2881
aS'16106'
p2882
aS'965'
p2883
aS'2688'
p2884
ag1380
ag1381
aS'3351'
p2885
aS'1290'
p2886
aS'256'
p2887
atRp2888
sS'5128'
p2889
g3
((lp2890
S'4845'
p2891
ag2583
atRp2892
sS'5121'
p2893
g3
((lp2894
S'5073'
p2895
aS'1160'
p2896
aS'2985'
p2897
atRp2898
sS'3503'
p2899
g3
((lp2900
S'1533'
p2901
ag506
aS'872'
p2902
aS'3130'
p2903
aS'87'
p2904
atRp2905
sS'3506'
p2906
g3
((lp2907
S'2643'
p2908
aS'2520'
p2909
atRp2910
sS'1428'
p2911
g3
((lp2912
S'780'
p2913
aS'1023'
p2914
aS'2423'
p2915
aS'2424'
p2916
aS'40'
p2917
aS'532'
p2918
aS'3111'
p2919
aS'256'
p2920
ag2293
atRp2921
sS'1634'
p2922
g3
((lp2923
S'31'
p2924
aS'829'
p2925
aS'3725'
p2926
aS'166'
p2927
aS'926'
p2928
ag2422
atRp2929
sS'4741'
p2930
g3
((lp2931
g617
ag1979
ag611
ag1981
ag1982
ag731
atRp2932
sS'1737'
p2933
g3
((lp2934
S'2727'
p2935
ag571
ag2062
ag2138
aS'944'
p2936
ag2040
ag576
aS'50'
p2937
atRp2938
sS'16003'
p2939
g3
((lp2940
S'2212'
p2941
aS'4402'
p2942
atRp2943
sS'752'
p2944
g3
((lp2945
g1061
aS'581'
p2946
ag1780
ag366
ag1062
ag254
aS'1595'
p2947
ag1064
ag1065
ag594
ag1066
atRp2948
sS'1595'
p2949
g3
((lp2950
g1253
aS'581'
p2951
aS'300'
p2952
aS'31'
p2953
ag1259
ag1260
aS'298'
p2954
aS'297'
p2955
aS'1565'
p2956
atRp2957
sS'3071'
p2958
g3
((lp2959
S'903'
p2960
aS'1326'
p2961
ag925
aS'1524'
p2962
ag930
aS'162'
p2963
ag2233
atRp2964
sS'228'
p2965
g3
((lp2966
g1016
ag1017
ag2482
aS'1181'
p2967
aS'1874'
p2968
aS'181'
p2969
ag978
ag1219
aS'1290'
p2970
aS'292'
p2971
atRp2972
sS'223'
p2973
g3
((lp2974
S'1469'
p2975
aS'386'
p2976
ag2179
atRp2977
sS'2952'
p2978
g3
((lp2979
S'24'
p2980
ag2824
aS'1023'
p2981
ag188
ag192
aS'412'
p2982
aS'1878'
p2983
atRp2984
sS'220'
p2985
g3
((lp2986
S'1393'
p2987
aS'1469'
p2988
ag2178
ag2976
aS'718'
p2989
atRp2990
sS'2212'
p2991
g3
((lp2992
S'16003'
p2993
ag1978
aS'4672'
p2994
ag2942
atRp2995
sS'2211'
p2996
g3
((lp2997
g2309
ag1800
ag482
ag2317
aS'1056'
p2998
ag481
ag1792
aS'2424'
p2999
ag2311
aS'3790'
p3000
aS'1375'
p3001
ag2373
aS'412'
p3002
aS'256'
p3003
ag387
atRp3004
sS'1026'
p3005
g3
((lp3006
g467
ag457
aS'49'
p3007
ag1891
ag462
aS'1459'
p3008
atRp3009
sS'1023'
p3010
g3
((lp3011
S'24'
p3012
aS'347'
p3013
aS'39'
p3014
aS'780'
p3015
aS'770'
p3016
aS'1428'
p3017
ag153
ag2662
ag2663
ag275
ag1765
ag472
aS'650'
p3018
ag2664
ag2665
ag2627
aS'81'
p3019
ag1764
ag2099
aS'1765'
p3020
atRp3021
sS'5426'
p3022
g3
((lp3023
g2790
ag1398
ag1416
aS'1220'
p3024
ag1411
aS'1971'
p3025
aS'1533'
p3026
aS'179'
p3027
aS'2023'
p3028
aS'1394'
p3029
aS'1538'
p3030
atRp3031
sS'1182'
p3032
g3
((lp3033
g2481
aS'1874'
p3034
aS'10578'
p3035
aS'13479'
p3036
aS'1181'
p3037
atRp3038
sS'1181'
p3039
g3
((lp3040
g1273
ag1272
aS'1182'
p3041
ag1870
ag1270
aS'1874'
p3042
aS'228'
p3043
aS'1290'
p3044
atRp3045
sS'1748'
p3046
g3
((lp3047
S'13'
p3048
ag298
ag495
ag297
ag2554
aS'1971'
p3049
aS'5910'
p3050
aS'392'
p3051
ag2901
aS'6047'
p3052
aS'3685'
p3053
ag367
ag2652
aS'87'
p3054
atRp3055
sS'150'
p3056
g3
((lp3057
g121
ag120
ag129
atRp3058
sS'1160'
p3059
g3
((lp3060
g799
aS'771'
p3061
aS'3383'
p3062
aS'853'
p3063
aS'300'
p3064
aS'2549'
p3065
aS'1273'
p3066
aS'2985'
p3067
aS'5121'
p3068
aS'1290'
p3069
aS'13479'
p3070
aS'770'
p3071
atRp3072
sS'4245'
p3073
g3
((lp3074
g1974
ag1980
ag1470
ag2288
ag2289
ag2387
ag2994
ag2294
aS'4541'
p3075
ag2370
atRp3076
sS'5524'
p3077
g3
((lp3078
S'5525'
p3079
atRp3080
sS'5525'
p3081
g3
((lp3082
g1432
aS'872'
p3083
aS'5524'
p3084
ag2112
atRp3085
sS'11079'
p3086
g3
((lp3087
g72
aS'868'
p3088
aS'2125'
p3089
ag2155
ag83
ag2156
ag1964
atRp3090
sS'4926'
p3091
g3
((lp3092
g972
ag2025
ag2566
ag744
atRp3093
sS'49'
p3094
g3
((lp3095
S'944'
p3096
aS'1026'
p3097
aS'5111'
p3098
ag2493
ag461
aS'3691'
p3099
aS'31'
p3100
aS'6815'
p3101
aS'50'
p3102
aS'3790'
p3103
aS'2946'
p3104
ag671
atRp3105
sS'44'
p3106
g3
((lp3107
g2426
ag3016
ag1761
aS'2059'
p3108
ag2094
aS'191'
p3109
ag1047
ag1765
aS'1970'
p3110
ag2664
aS'932'
p3111
aS'80'
p3112
ag3019
aS'87'
p3113
ag193
aS'781'
p3114
atRp3115
sS'43'
p3116
g3
((lp3117
g3109
ag15
aS'179'
p3118
aS'81'
p3119
aS'2052'
p3120
aS'853'
p3121
ag189
ag1046
aS'206'
p3122
aS'40'
p3123
ag16
aS'342'
p3124
ag2177
aS'1401'
p3125
ag10
ag89
ag90
ag198
aS'72'
p3126
ag1732
ag3111
aS'166'
p3127
ag1180
aS'1552'
p3128
aS'780'
p3129
aS'1023'
p3130
aS'3010'
p3131
aS'4678'
p3132
ag12
aS'908'
p3133
aS'31'
p3134
ag102
atRp3135
sS'40'
p3136
g3
((lp3137
g2663
ag93
ag159
ag3019
ag1770
ag3012
ag2278
ag188
ag2207
ag1764
ag2698
aS'43'
p3138
ag424
ag158
aS'4'
ag87
ag945
ag3016
aS'141'
p3139
aS'39'
p3140
aS'4541'
p3141
ag197
ag2824
aS'780'
p3142
ag1761
ag2094
ag3110
ag2664
ag940
ag934
aS'1765'
p3143
atRp3144
sS'41'
p3145
g3
((lp3146
g3140
aS'141'
p3147
ag423
aS'3067'
p3148
aS'3097'
p3149
aS'650'
p3150
aS'2165'
p3151
atRp3152
sS'17214'
p3153
g3
((lp3154
g35
ag1029
ag892
ag37
ag36
atRp3155
sS'8674'
p3156
g3
((lp3157
g2891
ag2581
atRp3158
sS'1290'
p3159
g3
((lp3160
S'1160'
p3161
ag3071
aS'581'
p3162
aS'311'
p3163
ag1256
aS'306'
p3164
aS'1181'
p3165
aS'1956'
p3166
aS'1374'
p3167
aS'298'
p3168
aS'228'
p3169
aS'5072'
p3170
aS'1528'
p3171
atRp3172
sS'2503'
p3173
g3
((lp3174
g681
aS'4000'
p3175
aS'2549'
p3176
ag2807
ag683
aS'111'
p3177
aS'3968'
p3178
atRp3179
sS'1565'
p3180
g3
((lp3181
g2124
ag219
ag221
ag222
ag224
aS'829'
p3182
ag473
ag1931
atRp3183
sS'2727'
p3184
g3
((lp3185
S'1737'
p3186
atRp3187
sS'22619'
p3188
g3
((lp3189
S'22620'
p3190
ag545
aS'1450'
p3191
aS'6224'
p3192
ag546
atRp3193
sS'2643'
p3194
g3
((lp3195
S'868'
p3196
ag2790
ag468
ag1963
ag457
ag848
ag1891
ag1741
ag1661
aS'3506'
p3197
aS'2160'
p3198
ag1398
ag2495
ag2794
aS'2946'
p3199
ag460
aS'1401'
p3200
ag1657
aS'1459'
p3201
aS'1828'
p3202
atRp3203
sS'14004'
p3204
g3
((lp3205
g2479
aS'1874'
p3206
ag3035
ag1391
atRp3207
sS'16106'
p3208
g3
((lp3209
S'965'
p3210
aS'3598'
p3211
aS'1826'
p3212
aS'16107'
p3213
aS'306'
p3214
aS'2688'
p3215
aS'3960'
p3216
aS'2199'
p3217
aS'13479'
p3218
atRp3219
sS'17176'
p3220
g3
((ltRp3221
sS'2422'
p3222
g3
((lp3223
S'868'
p3224
aS'2246'
p3225
aS'181'
p3226
aS'1394'
p3227
aS'1222'
p3228
atRp3229
sS'3789'
p3230
g3
((lp3231
g2021
aS'13848'
p3232
ag1012
aS'3790'
p3233
ag1005
ag1831
ag620
ag1011
ag1503
aS'256'
p3234
atRp3235
sS'4996'
p3236
g3
((lp3237
S'3258'
p3238
aS'353'
p3239
aS'1971'
p3240
aS'179'
p3241
atRp3242
sS'2001'
p3243
g3
((lp3244
S'868'
p3245
aS'2643'
p3246
aS'1459'
p3247
aS'211'
p3248
atRp3249
sS'479'
p3250
g3
((lp3251
S'2171'
p3252
atRp3253
sS'169'
p3254
g3
((lp3255
S'1774'
p3256
aS'1964'
p3257
aS'4120'
p3258
aS'872'
p3259
aS'2427'
p3260
aS'1374'
p3261
aS'1399'
p3262
aS'1401'
p3263
atRp3264
s.